cnumpy.core.multiarray
_reconstruct
p0
(cnumpy
ndarray
p1
(I0
tp2
S'b'
p3
tp4
Rp5
(I1
(I4
tp6
cnumpy
dtype
p7
(S'f8'
p8
I0
I1
tp9
Rp10
(I3
S'<'
p11
NNNI-1
I-1
I0
tp12
bI00
S"S\xef5\tk\xbd\xd7?\xd1\xbe\\'8\x82\xd3?\x98\xc3\xc9xj\x0f\xcc?@\xc0!L\x9e\xe2\xba?"
p13
tp14
b.